target datalayout = "e-m:e-p270:32:32-p271:32:32-p272:64:64-i64:64-i128:128-f80:128-n8:16:32:64-S128"
target triple = "x86_64-pc-linux-gnu"

%struct.UFILE = type { ptr, ptr, ptr, %struct.u_localized_string, [1024 x i16], i8, i32 }
%struct.u_localized_string = type { ptr, ptr, ptr, %struct.ULocaleBundle }
%struct.ULocaleBundle = type { ptr, [5 x ptr], i8 }

; Function Attrs: inlinehint mustprogress nounwind uwtable
define internal noundef signext i8 @_ZL9U_SUCCESS10UErrorCode(i32 noundef %0) #3 {
  %2 = alloca i32, align 4
  store i32 %0, ptr %2, align 4, !tbaa !11
  %3 = load i32, ptr %2, align 4, !tbaa !11
  %4 = icmp sle i32 %3, 0
  %5 = zext i1 %4 to i8
  ret i8 %5
}

; Function Attrs: mustprogress uwtable
define i32 @u_fsetcodepage_77(ptr noundef %0, ptr noundef %1) #0 {
  %3 = alloca ptr, align 8
  %4 = alloca ptr, align 8
  %5 = alloca i32, align 4
  %6 = alloca i32, align 4
  store ptr %0, ptr %3, align 8, !tbaa !8
  store ptr %1, ptr %4, align 8, !tbaa !13
  call void @llvm.lifetime.start.p0(i64 4, ptr %5) #9
  store i32 0, ptr %5, align 4, !tbaa !11
  call void @llvm.lifetime.start.p0(i64 4, ptr %6) #9
  store i32 -1, ptr %6, align 4, !tbaa !29
  %7 = load ptr, ptr %4, align 8, !tbaa !13
  %8 = getelementptr inbounds nuw %struct.UFILE, ptr %7, i32 0, i32 3
  %9 = getelementptr inbounds nuw %struct.u_localized_string, ptr %8, i32 0, i32 0
  %10 = load ptr, ptr %9, align 8, !tbaa !24
  %11 = load ptr, ptr %4, align 8, !tbaa !13
  %12 = getelementptr inbounds nuw %struct.UFILE, ptr %11, i32 0, i32 3
  %13 = getelementptr inbounds nuw %struct.u_localized_string, ptr %12, i32 0, i32 2
  %14 = load ptr, ptr %13, align 8, !tbaa !23
  %15 = icmp eq ptr %10, %14
  br i1 %15, label %16, label %39

16:                                               ; preds = %2
  %17 = load ptr, ptr %4, align 8, !tbaa !13
  %18 = getelementptr inbounds nuw %struct.UFILE, ptr %17, i32 0, i32 3
  %19 = getelementptr inbounds nuw %struct.u_localized_string, ptr %18, i32 0, i32 1
  %20 = load ptr, ptr %19, align 8, !tbaa !25
  %21 = load ptr, ptr %4, align 8, !tbaa !13
  %22 = getelementptr inbounds nuw %struct.UFILE, ptr %21, i32 0, i32 3
  %23 = getelementptr inbounds nuw %struct.u_localized_string, ptr %22, i32 0, i32 2
  %24 = load ptr, ptr %23, align 8, !tbaa !23
  %25 = icmp eq ptr %20, %24
  br i1 %25, label %26, label %39

26:                                               ; preds = %16
  %27 = load ptr, ptr %4, align 8, !tbaa !13
  %28 = getelementptr inbounds nuw %struct.UFILE, ptr %27, i32 0, i32 2
  %29 = load ptr, ptr %28, align 8, !tbaa !26
  call void @ucnv_close_77(ptr noundef %29)
  %30 = load ptr, ptr %3, align 8, !tbaa !8
  %31 = call ptr @ucnv_open_77(ptr noundef %30, ptr noundef %5)
  %32 = load ptr, ptr %4, align 8, !tbaa !13
  %33 = getelementptr inbounds nuw %struct.UFILE, ptr %32, i32 0, i32 2
  store ptr %31, ptr %33, align 8, !tbaa !26
  %34 = load i32, ptr %5, align 4, !tbaa !11
  %35 = call noundef signext i8 @_ZL9U_SUCCESS10UErrorCode(i32 noundef %34)
  %36 = icmp ne i8 %35, 0
  br i1 %36, label %37, label %38

37:                                               ; preds = %26
  store i32 0, ptr %6, align 4, !tbaa !29
  br label %38

38:                                               ; preds = %37, %26
  br label %39

39:                                               ; preds = %38, %16, %2
  %40 = load i32, ptr %6, align 4, !tbaa !29
  call void @llvm.lifetime.end.p0(i64 4, ptr %6) #9
  call void @llvm.lifetime.end.p0(i64 4, ptr %5) #9
  ret i32 %40
}