; Function Attrs: mustprogress uwtable
define range(i32 -1, 1) i32 @u_fsetcodepage_77(ptr noundef %0, ptr noundef captures(none) %1) local_unnamed_addr #0 {
  %3 = alloca i32, align 4
  call void @llvm.lifetime.start.p0(i64 4, ptr nonnull %3) #9
  store i32 0, ptr %3, align 4, !tbaa !3
  %4 = getelementptr inbounds nuw i8, ptr %1, i64 24
  %5 = load ptr, ptr %4, align 8, !tbaa !19
  %6 = getelementptr inbounds nuw i8, ptr %1, i64 40
  %7 = load ptr, ptr %6, align 8, !tbaa !18
  %8 = icmp eq ptr %5, %7
  br i1 %8, label %9, label %19

9:                                                ; preds = %2
  %10 = getelementptr inbounds nuw i8, ptr %1, i64 32
  %11 = load ptr, ptr %10, align 8, !tbaa !20
  %12 = icmp eq ptr %11, %5
  br i1 %12, label %13, label %19

13:                                               ; preds = %9
  %14 = getelementptr inbounds nuw i8, ptr %1, i64 16
  %15 = load ptr, ptr %14, align 8, !tbaa !22
  tail call void @ucnv_close_77(ptr noundef %15)
  %16 = call ptr @ucnv_open_77(ptr noundef %0, ptr noundef nonnull %3)
  store ptr %16, ptr %14, align 8, !tbaa !22
  %17 = load i32, ptr %3, align 4, !tbaa !3
  %18 = icmp sgt i32 %17, 0
  %spec.select = sext i1 %18 to i32
  br label %19

19:                                               ; preds = %13, %9, %2
  %.0 = phi i32 [ -1, %9 ], [ -1, %2 ], [ %spec.select, %13 ]
  call void @llvm.lifetime.end.p0(i64 4, ptr nonnull %3) #9
  ret i32 %.0
}